target datalayout = "e-m:e-p270:32:32-p271:32:32-p272:64:64-i64:64-i128:128-f80:128-n8:16:32:64-S128"
target triple = "x86_64-pc-linux-gnu"

%struct.PNGDSPContext = type { ptr, ptr }
%struct.AVCodecContext = type { ptr, i32, i32, ptr, i32, i32, ptr, ptr, ptr, i64, i32, i32, ptr, i32, %struct.AVRational, %struct.AVRational, %struct.AVRational, i32, i32, i32, i32, i32, %struct.AVRational, i32, i32, i32, i32, i32, i32, i32, i32, i32, i32, i32, ptr, ptr, i32, float, float, float, float, float, float, float, float, float, i32, i32, i32, i32, i32, i32, i32, i32, i32, i32, i32, i32, ptr, ptr, ptr, i32, i32, i32, i32, i32, i32, i32, i32, i32, i32, %struct.AVChannelLayout, i32, i32, i32, i32, i32, i32, i32, i32, ptr, i32, i32, i32, float, float, i32, i32, i32, i32, i32, ptr, i64, i64, float, float, i32, i32, ptr, ptr, i32, i32, i32, i32, i32, ptr, ptr, ptr, ptr, i32, i32, [8 x i64], i32, i32, i32, i32, i32, i32, i32, ptr, ptr, i32, i32, i32, i32, i32, i32, i32, i32, i32, i32, ptr, ptr, i32, i32, ptr, ptr, ptr, ptr, i32, i32, i64, i32, i32, i64, ptr, i64, ptr, i32, ptr, i32 }
%struct.AVRational = type { i32, i32 }
%struct.AVChannelLayout = type { i32, i32, %union.anon.0, ptr }
%union.anon.0 = type { i64 }
%struct.PNGDecContext = type { %struct.PNGDSPContext, ptr, %struct.GetByteContext, %struct.ProgressFrame, %struct.ProgressFrame, ptr, [82 x i8], ptr, i64, i32, i32, [2 x i32], [3 x [2 x i32]], i32, i32, i32, i32, i32, i32, i32, i32, i32, i32, [3 x [2 x i16]], [2 x i16], i32, i32, i32, i32, i32, i32, i32, i32, i32, i32, i8, i8, i32, i32, i32, i32, i32, i32, i32, i32, i32, [6 x i8], i32, [256 x i32], ptr, ptr, i32, ptr, i32, ptr, i32, i32, i32, i32, i32, i32, %struct.FFZStream }
%struct.GetByteContext = type { ptr, ptr, ptr }
%struct.ProgressFrame = type { ptr, ptr }
%struct.FFZStream = type { %struct.z_stream_s, i32 }
%struct.z_stream_s = type { ptr, i32, i64, ptr, i32, i64, ptr, ptr, ptr, ptr, ptr, i32, i64, i64 }

; Function Attrs: nounwind uwtable
define internal i32 @update_thread_context(ptr noundef %0, ptr noundef %1) #0 {
  %3 = alloca i32, align 4
  %4 = alloca ptr, align 8
  %5 = alloca ptr, align 8
  %6 = alloca ptr, align 8
  %7 = alloca ptr, align 8
  %8 = alloca ptr, align 8
  %9 = alloca i32, align 4
  store ptr %0, ptr %4, align 8, !tbaa !33
  store ptr %1, ptr %5, align 8, !tbaa !33
  call void @llvm.lifetime.start.p0(i64 8, ptr %6) #13
  %10 = load ptr, ptr %5, align 8, !tbaa !33
  %11 = getelementptr inbounds nuw %struct.AVCodecContext, ptr %10, i32 0, i32 6
  %12 = load ptr, ptr %11, align 8, !tbaa !35
  store ptr %12, ptr %6, align 8, !tbaa !53
  call void @llvm.lifetime.start.p0(i64 8, ptr %7) #13
  %13 = load ptr, ptr %4, align 8, !tbaa !33
  %14 = getelementptr inbounds nuw %struct.AVCodecContext, ptr %13, i32 0, i32 6
  %15 = load ptr, ptr %14, align 8, !tbaa !35
  store ptr %15, ptr %7, align 8, !tbaa !53
  call void @llvm.lifetime.start.p0(i64 8, ptr %8) #13
  %16 = load ptr, ptr %4, align 8, !tbaa !33
  %17 = load ptr, ptr %5, align 8, !tbaa !33
  %18 = icmp eq ptr %16, %17
  br i1 %18, label %19, label %20

19:                                               ; preds = %2
  store i32 0, ptr %3, align 4
  store i32 1, ptr %9, align 4
  br label %102

20:                                               ; preds = %2
  %21 = load ptr, ptr %4, align 8, !tbaa !33
  %22 = getelementptr inbounds nuw %struct.AVCodecContext, ptr %21, i32 0, i32 4
  %23 = load i32, ptr %22, align 8, !tbaa !55
  %24 = icmp eq i32 %23, 210
  br i1 %24, label %25, label %85

25:                                               ; preds = %20
  %26 = load ptr, ptr %6, align 8, !tbaa !53
  %27 = getelementptr inbounds nuw %struct.PNGDecContext, ptr %26, i32 0, i32 29
  %28 = load i32, ptr %27, align 8, !tbaa !56
  %29 = load ptr, ptr %7, align 8, !tbaa !53
  %30 = getelementptr inbounds nuw %struct.PNGDecContext, ptr %29, i32 0, i32 29
  store i32 %28, ptr %30, align 8, !tbaa !56
  %31 = load ptr, ptr %6, align 8, !tbaa !53
  %32 = getelementptr inbounds nuw %struct.PNGDecContext, ptr %31, i32 0, i32 30
  %33 = load i32, ptr %32, align 4, !tbaa !66
  %34 = load ptr, ptr %7, align 8, !tbaa !53
  %35 = getelementptr inbounds nuw %struct.PNGDecContext, ptr %34, i32 0, i32 30
  store i32 %33, ptr %35, align 4, !tbaa !66
  %36 = load ptr, ptr %6, align 8, !tbaa !53
  %37 = getelementptr inbounds nuw %struct.PNGDecContext, ptr %36, i32 0, i32 37
  %38 = load i32, ptr %37, align 4, !tbaa !67
  %39 = load ptr, ptr %7, align 8, !tbaa !53
  %40 = getelementptr inbounds nuw %struct.PNGDecContext, ptr %39, i32 0, i32 37
  store i32 %38, ptr %40, align 4, !tbaa !67
  %41 = load ptr, ptr %6, align 8, !tbaa !53
  %42 = getelementptr inbounds nuw %struct.PNGDecContext, ptr %41, i32 0, i32 38
  %43 = load i32, ptr %42, align 8, !tbaa !68
  %44 = load ptr, ptr %7, align 8, !tbaa !53
  %45 = getelementptr inbounds nuw %struct.PNGDecContext, ptr %44, i32 0, i32 38
  store i32 %43, ptr %45, align 8, !tbaa !68
  %46 = load ptr, ptr %6, align 8, !tbaa !53
  %47 = getelementptr inbounds nuw %struct.PNGDecContext, ptr %46, i32 0, i32 39
  %48 = load i32, ptr %47, align 4, !tbaa !69
  %49 = load ptr, ptr %7, align 8, !tbaa !53
  %50 = getelementptr inbounds nuw %struct.PNGDecContext, ptr %49, i32 0, i32 39
  store i32 %48, ptr %50, align 4, !tbaa !69
  %51 = load ptr, ptr %6, align 8, !tbaa !53
  %52 = getelementptr inbounds nuw %struct.PNGDecContext, ptr %51, i32 0, i32 40
  %53 = load i32, ptr %52, align 8, !tbaa !70
  %54 = load ptr, ptr %7, align 8, !tbaa !53
  %55 = getelementptr inbounds nuw %struct.PNGDecContext, ptr %54, i32 0, i32 40
  store i32 %53, ptr %55, align 8, !tbaa !70
  %56 = load ptr, ptr %6, align 8, !tbaa !53
  %57 = getelementptr inbounds nuw %struct.PNGDecContext, ptr %56, i32 0, i32 41
  %58 = load i32, ptr %57, align 4, !tbaa !71
  %59 = load ptr, ptr %7, align 8, !tbaa !53
  %60 = getelementptr inbounds nuw %struct.PNGDecContext, ptr %59, i32 0, i32 41
  store i32 %58, ptr %60, align 4, !tbaa !71
  %61 = load ptr, ptr %6, align 8, !tbaa !53
  %62 = getelementptr inbounds nuw %struct.PNGDecContext, ptr %61, i32 0, i32 45
  %63 = load i32, ptr %62, align 4, !tbaa !72
  %64 = load ptr, ptr %7, align 8, !tbaa !53
  %65 = getelementptr inbounds nuw %struct.PNGDecContext, ptr %64, i32 0, i32 45
  store i32 %63, ptr %65, align 4, !tbaa !72
  %66 = load ptr, ptr %7, align 8, !tbaa !53
  %67 = getelementptr inbounds nuw %struct.PNGDecContext, ptr %66, i32 0, i32 46
  %68 = getelementptr inbounds [6 x i8], ptr %67, i64 0, i64 0
  %69 = load ptr, ptr %6, align 8, !tbaa !53
  %70 = getelementptr inbounds nuw %struct.PNGDecContext, ptr %69, i32 0, i32 46
  %71 = getelementptr inbounds [6 x i8], ptr %70, i64 0, i64 0
  call void @llvm.memcpy.p0.p0.i64(ptr align 8 %68, ptr align 8 %71, i64 6, i1 false)
  %72 = load ptr, ptr %7, align 8, !tbaa !53
  %73 = getelementptr inbounds nuw %struct.PNGDecContext, ptr %72, i32 0, i32 48
  %74 = getelementptr inbounds [256 x i32], ptr %73, i64 0, i64 0
  %75 = load ptr, ptr %6, align 8, !tbaa !53
  %76 = getelementptr inbounds nuw %struct.PNGDecContext, ptr %75, i32 0, i32 48
  %77 = getelementptr inbounds [256 x i32], ptr %76, i64 0, i64 0
  call void @llvm.memcpy.p0.p0.i64(ptr align 4 %74, ptr align 4 %77, i64 1024, i1 false)
  %78 = load ptr, ptr %6, align 8, !tbaa !53
  %79 = getelementptr inbounds nuw %struct.PNGDecContext, ptr %78, i32 0, i32 27
  %80 = load i32, ptr %79, align 8, !tbaa !73
  %81 = load ptr, ptr %7, align 8, !tbaa !53
  %82 = getelementptr inbounds nuw %struct.PNGDecContext, ptr %81, i32 0, i32 27
  %83 = load i32, ptr %82, align 8, !tbaa !73
  %84 = or i32 %83, %80
  store i32 %84, ptr %82, align 8, !tbaa !73
  br label %85

85:                                               ; preds = %25, %20
  %86 = load ptr, ptr %6, align 8, !tbaa !53
  %87 = getelementptr inbounds nuw %struct.PNGDecContext, ptr %86, i32 0, i32 35
  %88 = load i8, ptr %87, align 8, !tbaa !74
  %89 = zext i8 %88 to i32
  %90 = icmp eq i32 %89, 2
  br i1 %90, label %91, label %94

91:                                               ; preds = %85
  %92 = load ptr, ptr %6, align 8, !tbaa !53
  %93 = getelementptr inbounds nuw %struct.PNGDecContext, ptr %92, i32 0, i32 3
  br label %97

94:                                               ; preds = %85
  %95 = load ptr, ptr %6, align 8, !tbaa !53
  %96 = getelementptr inbounds nuw %struct.PNGDecContext, ptr %95, i32 0, i32 4
  br label %97

97:                                               ; preds = %94, %91
  %98 = phi ptr [ %93, %91 ], [ %96, %94 ]
  store ptr %98, ptr %8, align 8, !tbaa !75
  %99 = load ptr, ptr %7, align 8, !tbaa !53
  %100 = getelementptr inbounds nuw %struct.PNGDecContext, ptr %99, i32 0, i32 3
  %101 = load ptr, ptr %8, align 8, !tbaa !75
  call void @ff_progress_frame_replace(ptr noundef %100, ptr noundef %101)
  store i32 0, ptr %3, align 4
  store i32 1, ptr %9, align 4
  br label %102

102:                                              ; preds = %97, %19
  call void @llvm.lifetime.end.p0(i64 8, ptr %8) #13
  call void @llvm.lifetime.end.p0(i64 8, ptr %7) #13
  call void @llvm.lifetime.end.p0(i64 8, ptr %6) #13
  %103 = load i32, ptr %3, align 4
  ret i32 %103
}