; Function Attrs: nounwind uwtable
define internal noundef i32 @update_thread_context(ptr noundef readonly captures(address) %0, ptr noundef readonly captures(address) %1) #3 {
  %3 = getelementptr inbounds nuw i8, ptr %1, i64 32
  %4 = load ptr, ptr %3, align 8, !tbaa !28
  %5 = getelementptr inbounds nuw i8, ptr %0, i64 32
  %6 = load ptr, ptr %5, align 8, !tbaa !28
  %7 = icmp eq ptr %0, %1
  br i1 %7, label %52, label %8

8:                                                ; preds = %2
  %9 = getelementptr inbounds nuw i8, ptr %0, i64 24
  %10 = load i32, ptr %9, align 8, !tbaa !47
  %11 = icmp eq i32 %10, 210
  br i1 %11, label %12, label %46

12:                                               ; preds = %8
  %13 = getelementptr inbounds nuw i8, ptr %4, i64 304
  %14 = load i32, ptr %13, align 8, !tbaa !48
  %15 = getelementptr inbounds nuw i8, ptr %6, i64 304
  store i32 %14, ptr %15, align 8, !tbaa !48
  %16 = getelementptr inbounds nuw i8, ptr %4, i64 308
  %17 = load i32, ptr %16, align 4, !tbaa !59
  %18 = getelementptr inbounds nuw i8, ptr %6, i64 308
  store i32 %17, ptr %18, align 4, !tbaa !59
  %19 = getelementptr inbounds nuw i8, ptr %4, i64 332
  %20 = load i32, ptr %19, align 4, !tbaa !60
  %21 = getelementptr inbounds nuw i8, ptr %6, i64 332
  store i32 %20, ptr %21, align 4, !tbaa !60
  %22 = getelementptr inbounds nuw i8, ptr %4, i64 336
  %23 = load i32, ptr %22, align 8, !tbaa !61
  %24 = getelementptr inbounds nuw i8, ptr %6, i64 336
  store i32 %23, ptr %24, align 8, !tbaa !61
  %25 = getelementptr inbounds nuw i8, ptr %4, i64 340
  %26 = load i32, ptr %25, align 4, !tbaa !62
  %27 = getelementptr inbounds nuw i8, ptr %6, i64 340
  store i32 %26, ptr %27, align 4, !tbaa !62
  %28 = getelementptr inbounds nuw i8, ptr %4, i64 344
  %29 = load i32, ptr %28, align 8, !tbaa !63
  %30 = getelementptr inbounds nuw i8, ptr %6, i64 344
  store i32 %29, ptr %30, align 8, !tbaa !63
  %31 = getelementptr inbounds nuw i8, ptr %4, i64 348
  %32 = load i32, ptr %31, align 4, !tbaa !64
  %33 = getelementptr inbounds nuw i8, ptr %6, i64 348
  store i32 %32, ptr %33, align 4, !tbaa !64
  %34 = getelementptr inbounds nuw i8, ptr %4, i64 364
  %35 = load i32, ptr %34, align 4, !tbaa !65
  %36 = getelementptr inbounds nuw i8, ptr %6, i64 364
  store i32 %35, ptr %36, align 4, !tbaa !65
  %37 = getelementptr inbounds nuw i8, ptr %6, i64 368
  %38 = getelementptr inbounds nuw i8, ptr %4, i64 368
  tail call void @llvm.memcpy.p0.p0.i64(ptr noundef nonnull align 8 dereferenceable(6) %37, ptr noundef nonnull align 8 dereferenceable(6) %38, i64 6, i1 false)
  %39 = getelementptr inbounds nuw i8, ptr %6, i64 380
  %40 = getelementptr inbounds nuw i8, ptr %4, i64 380
  tail call void @llvm.memcpy.p0.p0.i64(ptr noundef nonnull align 4 dereferenceable(1024) %39, ptr noundef nonnull align 4 dereferenceable(1024) %40, i64 1024, i1 false)
  %41 = getelementptr inbounds nuw i8, ptr %4, i64 296
  %42 = load i32, ptr %41, align 8, !tbaa !66
  %43 = getelementptr inbounds nuw i8, ptr %6, i64 296
  %44 = load i32, ptr %43, align 8, !tbaa !66
  %45 = or i32 %44, %42
  store i32 %45, ptr %43, align 8, !tbaa !66
  br label %46

46:                                               ; preds = %12, %8
  %47 = getelementptr inbounds nuw i8, ptr %4, i64 328
  %48 = load i8, ptr %47, align 8, !tbaa !67
  %49 = icmp eq i8 %48, 2
  %.v = select i1 %49, i64 48, i64 64
  %50 = getelementptr inbounds nuw i8, ptr %4, i64 %.v
  %51 = getelementptr inbounds nuw i8, ptr %6, i64 48
  tail call void @ff_progress_frame_replace(ptr noundef nonnull %51, ptr noundef nonnull %50) #13
  br label %52

52:                                               ; preds = %2, %46
  ret i32 0
}